target datalayout = "e-m:e-p270:32:32-p271:32:32-p272:64:64-i64:64-i128:128-f80:128-n8:16:32:64-S128"
target triple = "x86_64-pc-linux-gnu"

%struct.cr_record = type { ptr, ptr, i16, ptr, i16 }
%struct.node_cr_record = type { ptr, i64, i16, ptr }
%struct.part_cr_record = type { ptr, i16, i16, ptr }
%struct.node_record = type { ptr, ptr, i16, i64, i64, ptr, ptr, ptr, i16, ptr, i16, i16, i32, i32, i64, ptr, i16, i16, ptr, ptr, ptr, ptr, ptr, i64, i64, ptr, ptr, ptr, ptr, i32, ptr, ptr, i64, i64, i32, ptr, i64, ptr, i32, i16, ptr, ptr, i32, ptr, i32, i8, ptr, i32, i16, i16, ptr, i16, i64, i16, i64, ptr, i64, i32, i16, i64, i16, ptr, i16, i64, ptr, i64, i16, i32, i16, ptr, ptr, ptr, i16, i32, i16, i16, i32, ptr, i16, i32 }

@node_record_count = dso_local global i32 0, align 4
@.str.10 = private unnamed_addr constant [16 x i8] c"select_linear.c\00", align 1
@__func__._dup_cr = private unnamed_addr constant [8 x i8] c"_dup_cr\00", align 1

; Function Attrs: nounwind uwtable
define internal ptr @_dup_cr(ptr noundef %0) #0 {
  %2 = alloca ptr, align 8
  %3 = alloca ptr, align 8
  %4 = alloca i32, align 4
  %5 = alloca ptr, align 8
  %6 = alloca ptr, align 8
  %7 = alloca ptr, align 8
  %8 = alloca ptr, align 8
  %9 = alloca ptr, align 8
  %10 = alloca i32, align 4
  store ptr %0, ptr %3, align 8
  call void @llvm.lifetime.start.p0(i64 4, ptr %4) #8
  call void @llvm.lifetime.start.p0(i64 8, ptr %5) #8
  call void @llvm.lifetime.start.p0(i64 8, ptr %6) #8
  call void @llvm.lifetime.start.p0(i64 8, ptr %7) #8
  call void @llvm.lifetime.start.p0(i64 8, ptr %8) #8
  call void @llvm.lifetime.start.p0(i64 8, ptr %9) #8
  %11 = load ptr, ptr %3, align 8
  %12 = icmp eq ptr %11, null
  br i1 %12, label %13, label %14

13:                                               ; preds = %1
  store ptr null, ptr %2, align 8
  store i32 1, ptr %10, align 4
  br label %210

14:                                               ; preds = %1
  %15 = call ptr @slurm_xcalloc(i64 noundef 1, i64 noundef 40, i1 noundef zeroext true, i1 noundef zeroext false, ptr noundef @.str.10, i32 noundef 1632, ptr noundef @__func__._dup_cr)
  store ptr %15, ptr %5, align 8
  %16 = load ptr, ptr %3, align 8
  %17 = getelementptr inbounds nuw %struct.cr_record, ptr %16, i32 0, i32 2
  %18 = load i16, ptr %17, align 8
  %19 = load ptr, ptr %5, align 8
  %20 = getelementptr inbounds nuw %struct.cr_record, ptr %19, i32 0, i32 2
  store i16 %18, ptr %20, align 8
  %21 = load ptr, ptr %3, align 8
  %22 = getelementptr inbounds nuw %struct.cr_record, ptr %21, i32 0, i32 2
  %23 = load i16, ptr %22, align 8
  %24 = zext i16 %23 to i64
  %25 = mul i64 4, %24
  %26 = trunc i64 %25 to i32
  store i32 %26, ptr %4, align 4
  %27 = load i32, ptr %4, align 4
  %28 = sext i32 %27 to i64
  %29 = call ptr @slurm_xcalloc(i64 noundef 1, i64 noundef %28, i1 noundef zeroext true, i1 noundef zeroext false, ptr noundef @.str.10, i32 noundef 1635, ptr noundef @__func__._dup_cr)
  %30 = load ptr, ptr %5, align 8
  %31 = getelementptr inbounds nuw %struct.cr_record, ptr %30, i32 0, i32 1
  store ptr %29, ptr %31, align 8
  %32 = load ptr, ptr %5, align 8
  %33 = getelementptr inbounds nuw %struct.cr_record, ptr %32, i32 0, i32 1
  %34 = load ptr, ptr %33, align 8
  %35 = load ptr, ptr %3, align 8
  %36 = getelementptr inbounds nuw %struct.cr_record, ptr %35, i32 0, i32 1
  %37 = load ptr, ptr %36, align 8
  %38 = load i32, ptr %4, align 4
  %39 = sext i32 %38 to i64
  call void @llvm.memcpy.p0.p0.i64(ptr align 4 %34, ptr align 4 %37, i64 %39, i1 false)
  %40 = load ptr, ptr %3, align 8
  %41 = getelementptr inbounds nuw %struct.cr_record, ptr %40, i32 0, i32 4
  %42 = load i16, ptr %41, align 8
  %43 = load ptr, ptr %5, align 8
  %44 = getelementptr inbounds nuw %struct.cr_record, ptr %43, i32 0, i32 4
  store i16 %42, ptr %44, align 8
  %45 = load ptr, ptr %3, align 8
  %46 = getelementptr inbounds nuw %struct.cr_record, ptr %45, i32 0, i32 4
  %47 = load i16, ptr %46, align 8
  %48 = zext i16 %47 to i64
  %49 = mul i64 4, %48
  %50 = trunc i64 %49 to i32
  store i32 %50, ptr %4, align 4
  %51 = load i32, ptr %4, align 4
  %52 = sext i32 %51 to i64
  %53 = call ptr @slurm_xcalloc(i64 noundef 1, i64 noundef %52, i1 noundef zeroext true, i1 noundef zeroext false, ptr noundef @.str.10, i32 noundef 1639, ptr noundef @__func__._dup_cr)
  %54 = load ptr, ptr %5, align 8
  %55 = getelementptr inbounds nuw %struct.cr_record, ptr %54, i32 0, i32 3
  store ptr %53, ptr %55, align 8
  %56 = load ptr, ptr %5, align 8
  %57 = getelementptr inbounds nuw %struct.cr_record, ptr %56, i32 0, i32 3
  %58 = load ptr, ptr %57, align 8
  %59 = load ptr, ptr %3, align 8
  %60 = getelementptr inbounds nuw %struct.cr_record, ptr %59, i32 0, i32 3
  %61 = load ptr, ptr %60, align 8
  %62 = load i32, ptr %4, align 4
  %63 = sext i32 %62 to i64
  call void @llvm.memcpy.p0.p0.i64(ptr align 4 %58, ptr align 4 %61, i64 %63, i1 false)
  %64 = load i32, ptr @node_record_count, align 4
  %65 = sext i32 %64 to i64
  %66 = call ptr @slurm_xcalloc(i64 noundef %65, i64 noundef 32, i1 noundef zeroext true, i1 noundef zeroext false, ptr noundef @.str.10, i32 noundef 1643, ptr noundef @__func__._dup_cr)
  %67 = load ptr, ptr %5, align 8
  %68 = getelementptr inbounds nuw %struct.cr_record, ptr %67, i32 0, i32 0
  store ptr %66, ptr %68, align 8
  store i32 0, ptr %4, align 4
  br label %69

69:                                               ; preds = %205, %14
  %70 = call ptr @next_node(ptr noundef %4)
  store ptr %70, ptr %8, align 8
  %71 = icmp ne ptr %70, null
  br i1 %71, label %72, label %208

72:                                               ; preds = %69
  %73 = load ptr, ptr %3, align 8
  %74 = getelementptr inbounds nuw %struct.cr_record, ptr %73, i32 0, i32 0
  %75 = load ptr, ptr %74, align 8
  %76 = load ptr, ptr %8, align 8
  %77 = getelementptr inbounds nuw %struct.node_record, ptr %76, i32 0, i32 29
  %78 = load i32, ptr %77, align 8
  %79 = zext i32 %78 to i64
  %80 = getelementptr inbounds nuw %struct.node_cr_record, ptr %75, i64 %79
  %81 = getelementptr inbounds nuw %struct.node_cr_record, ptr %80, i32 0, i32 1
  %82 = load i64, ptr %81, align 8
  %83 = load ptr, ptr %5, align 8
  %84 = getelementptr inbounds nuw %struct.cr_record, ptr %83, i32 0, i32 0
  %85 = load ptr, ptr %84, align 8
  %86 = load ptr, ptr %8, align 8
  %87 = getelementptr inbounds nuw %struct.node_record, ptr %86, i32 0, i32 29
  %88 = load i32, ptr %87, align 8
  %89 = zext i32 %88 to i64
  %90 = getelementptr inbounds nuw %struct.node_cr_record, ptr %85, i64 %89
  %91 = getelementptr inbounds nuw %struct.node_cr_record, ptr %90, i32 0, i32 1
  store i64 %82, ptr %91, align 8
  %92 = load ptr, ptr %3, align 8
  %93 = getelementptr inbounds nuw %struct.cr_record, ptr %92, i32 0, i32 0
  %94 = load ptr, ptr %93, align 8
  %95 = load ptr, ptr %8, align 8
  %96 = getelementptr inbounds nuw %struct.node_record, ptr %95, i32 0, i32 29
  %97 = load i32, ptr %96, align 8
  %98 = zext i32 %97 to i64
  %99 = getelementptr inbounds nuw %struct.node_cr_record, ptr %94, i64 %98
  %100 = getelementptr inbounds nuw %struct.node_cr_record, ptr %99, i32 0, i32 2
  %101 = load i16, ptr %100, align 8
  %102 = load ptr, ptr %5, align 8
  %103 = getelementptr inbounds nuw %struct.cr_record, ptr %102, i32 0, i32 0
  %104 = load ptr, ptr %103, align 8
  %105 = load ptr, ptr %8, align 8
  %106 = getelementptr inbounds nuw %struct.node_record, ptr %105, i32 0, i32 29
  %107 = load i32, ptr %106, align 8
  %108 = zext i32 %107 to i64
  %109 = getelementptr inbounds nuw %struct.node_cr_record, ptr %104, i64 %108
  %110 = getelementptr inbounds nuw %struct.node_cr_record, ptr %109, i32 0, i32 2
  store i16 %101, ptr %110, align 8
  %111 = load ptr, ptr %3, align 8
  %112 = getelementptr inbounds nuw %struct.cr_record, ptr %111, i32 0, i32 0
  %113 = load ptr, ptr %112, align 8
  %114 = load ptr, ptr %8, align 8
  %115 = getelementptr inbounds nuw %struct.node_record, ptr %114, i32 0, i32 29
  %116 = load i32, ptr %115, align 8
  %117 = zext i32 %116 to i64
  %118 = getelementptr inbounds nuw %struct.node_cr_record, ptr %113, i64 %117
  %119 = getelementptr inbounds nuw %struct.node_cr_record, ptr %118, i32 0, i32 0
  %120 = load ptr, ptr %119, align 8
  store ptr %120, ptr %6, align 8
  br label %121

121:                                              ; preds = %124, %72
  %122 = load ptr, ptr %6, align 8
  %123 = icmp ne ptr %122, null
  br i1 %123, label %124, label %166

124:                                              ; preds = %121
  %125 = call ptr @slurm_xcalloc(i64 noundef 1, i64 noundef 24, i1 noundef zeroext true, i1 noundef zeroext false, ptr noundef @.str.10, i32 noundef 1653, ptr noundef @__func__._dup_cr)
  store ptr %125, ptr %7, align 8
  %126 = load ptr, ptr %6, align 8
  %127 = getelementptr inbounds nuw %struct.part_cr_record, ptr %126, i32 0, i32 0
  %128 = load ptr, ptr %127, align 8
  %129 = load ptr, ptr %7, align 8
  %130 = getelementptr inbounds nuw %struct.part_cr_record, ptr %129, i32 0, i32 0
  store ptr %128, ptr %130, align 8
  %131 = load ptr, ptr %6, align 8
  %132 = getelementptr inbounds nuw %struct.part_cr_record, ptr %131, i32 0, i32 1
  %133 = load i16, ptr %132, align 8
  %134 = load ptr, ptr %7, align 8
  %135 = getelementptr inbounds nuw %struct.part_cr_record, ptr %134, i32 0, i32 1
  store i16 %133, ptr %135, align 8
  %136 = load ptr, ptr %6, align 8
  %137 = getelementptr inbounds nuw %struct.part_cr_record, ptr %136, i32 0, i32 2
  %138 = load i16, ptr %137, align 2
  %139 = load ptr, ptr %7, align 8
  %140 = getelementptr inbounds nuw %struct.part_cr_record, ptr %139, i32 0, i32 2
  store i16 %138, ptr %140, align 2
  %141 = load ptr, ptr %5, align 8
  %142 = getelementptr inbounds nuw %struct.cr_record, ptr %141, i32 0, i32 0
  %143 = load ptr, ptr %142, align 8
  %144 = load ptr, ptr %8, align 8
  %145 = getelementptr inbounds nuw %struct.node_record, ptr %144, i32 0, i32 29
  %146 = load i32, ptr %145, align 8
  %147 = zext i32 %146 to i64
  %148 = getelementptr inbounds nuw %struct.node_cr_record, ptr %143, i64 %147
  %149 = getelementptr inbounds nuw %struct.node_cr_record, ptr %148, i32 0, i32 0
  %150 = load ptr, ptr %149, align 8
  %151 = load ptr, ptr %7, align 8
  %152 = getelementptr inbounds nuw %struct.part_cr_record, ptr %151, i32 0, i32 3
  store ptr %150, ptr %152, align 8
  %153 = load ptr, ptr %7, align 8
  %154 = load ptr, ptr %5, align 8
  %155 = getelementptr inbounds nuw %struct.cr_record, ptr %154, i32 0, i32 0
  %156 = load ptr, ptr %155, align 8
  %157 = load ptr, ptr %8, align 8
  %158 = getelementptr inbounds nuw %struct.node_record, ptr %157, i32 0, i32 29
  %159 = load i32, ptr %158, align 8
  %160 = zext i32 %159 to i64
  %161 = getelementptr inbounds nuw %struct.node_cr_record, ptr %156, i64 %160
  %162 = getelementptr inbounds nuw %struct.node_cr_record, ptr %161, i32 0, i32 0
  store ptr %153, ptr %162, align 8
  %163 = load ptr, ptr %6, align 8
  %164 = getelementptr inbounds nuw %struct.part_cr_record, ptr %163, i32 0, i32 3
  %165 = load ptr, ptr %164, align 8
  store ptr %165, ptr %6, align 8
  br label %121, !llvm.loop !49

166:                                              ; preds = %121
  %167 = load ptr, ptr %3, align 8
  %168 = getelementptr inbounds nuw %struct.cr_record, ptr %167, i32 0, i32 0
  %169 = load ptr, ptr %168, align 8
  %170 = load ptr, ptr %8, align 8
  %171 = getelementptr inbounds nuw %struct.node_record, ptr %170, i32 0, i32 29
  %172 = load i32, ptr %171, align 8
  %173 = zext i32 %172 to i64
  %174 = getelementptr inbounds nuw %struct.node_cr_record, ptr %169, i64 %173
  %175 = getelementptr inbounds nuw %struct.node_cr_record, ptr %174, i32 0, i32 3
  %176 = load ptr, ptr %175, align 8
  %177 = icmp ne ptr %176, null
  br i1 %177, label %178, label %189

178:                                              ; preds = %166
  %179 = load ptr, ptr %3, align 8
  %180 = getelementptr inbounds nuw %struct.cr_record, ptr %179, i32 0, i32 0
  %181 = load ptr, ptr %180, align 8
  %182 = load ptr, ptr %8, align 8
  %183 = getelementptr inbounds nuw %struct.node_record, ptr %182, i32 0, i32 29
  %184 = load i32, ptr %183, align 8
  %185 = zext i32 %184 to i64
  %186 = getelementptr inbounds nuw %struct.node_cr_record, ptr %181, i64 %185
  %187 = getelementptr inbounds nuw %struct.node_cr_record, ptr %186, i32 0, i32 3
  %188 = load ptr, ptr %187, align 8
  store ptr %188, ptr %9, align 8
  br label %193

189:                                              ; preds = %166
  %190 = load ptr, ptr %8, align 8
  %191 = getelementptr inbounds nuw %struct.node_record, ptr %190, i32 0, i32 28
  %192 = load ptr, ptr %191, align 8
  store ptr %192, ptr %9, align 8
  br label %193

193:                                              ; preds = %189, %178
  %194 = load ptr, ptr %9, align 8
  %195 = call ptr @gres_node_state_list_dup(ptr noundef %194)
  %196 = load ptr, ptr %5, align 8
  %197 = getelementptr inbounds nuw %struct.cr_record, ptr %196, i32 0, i32 0
  %198 = load ptr, ptr %197, align 8
  %199 = load ptr, ptr %8, align 8
  %200 = getelementptr inbounds nuw %struct.node_record, ptr %199, i32 0, i32 29
  %201 = load i32, ptr %200, align 8
  %202 = zext i32 %201 to i64
  %203 = getelementptr inbounds nuw %struct.node_cr_record, ptr %198, i64 %202
  %204 = getelementptr inbounds nuw %struct.node_cr_record, ptr %203, i32 0, i32 3
  store ptr %195, ptr %204, align 8
  br label %205

205:                                              ; preds = %193
  %206 = load i32, ptr %4, align 4
  %207 = add nsw i32 %206, 1
  store i32 %207, ptr %4, align 4
  br label %69, !llvm.loop !50

208:                                              ; preds = %69
  %209 = load ptr, ptr %5, align 8
  store ptr %209, ptr %2, align 8
  store i32 1, ptr %10, align 4
  br label %210

210:                                              ; preds = %208, %13
  call void @llvm.lifetime.end.p0(i64 8, ptr %9) #8
  call void @llvm.lifetime.end.p0(i64 8, ptr %8) #8
  call void @llvm.lifetime.end.p0(i64 8, ptr %7) #8
  call void @llvm.lifetime.end.p0(i64 8, ptr %6) #8
  call void @llvm.lifetime.end.p0(i64 8, ptr %5) #8
  call void @llvm.lifetime.end.p0(i64 4, ptr %4) #8
  %211 = load ptr, ptr %2, align 8
  ret ptr %211
}