; Function Attrs: nounwind uwtable
define internal fastcc ptr @_dup_cr(ptr noundef readonly captures(address_is_null) %0) unnamed_addr #0 {
  %2 = alloca i32, align 4
  call void @llvm.lifetime.start.p0(i64 4, ptr nonnull %2) #11
  %3 = icmp eq ptr %0, null
  br i1 %3, label %.loopexit, label %4

4:                                                ; preds = %1
  %5 = tail call ptr @slurm_xcalloc(i64 noundef 1, i64 noundef 40, i1 noundef zeroext true, i1 noundef zeroext false, ptr noundef nonnull @.str.10, i32 noundef 1632, ptr noundef nonnull @__func__._dup_cr) #11
  %6 = getelementptr inbounds nuw i8, ptr %0, i64 16
  %7 = load i16, ptr %6, align 8
  %8 = getelementptr inbounds nuw i8, ptr %5, i64 16
  store i16 %7, ptr %8, align 8
  %9 = zext i16 %7 to i32
  %10 = shl nuw nsw i32 %9, 2
  %11 = zext nneg i32 %10 to i64
  %12 = tail call ptr @slurm_xcalloc(i64 noundef 1, i64 noundef %11, i1 noundef zeroext true, i1 noundef zeroext false, ptr noundef nonnull @.str.10, i32 noundef 1635, ptr noundef nonnull @__func__._dup_cr) #11
  %13 = getelementptr inbounds nuw i8, ptr %5, i64 8
  store ptr %12, ptr %13, align 8
  %14 = getelementptr inbounds nuw i8, ptr %0, i64 8
  %15 = load ptr, ptr %14, align 8
  %16 = zext nneg i32 %10 to i64
  tail call void @llvm.memcpy.p0.p0.i64(ptr align 4 %12, ptr align 4 %15, i64 %16, i1 false)
  %17 = getelementptr inbounds nuw i8, ptr %0, i64 32
  %18 = load i16, ptr %17, align 8
  %19 = getelementptr inbounds nuw i8, ptr %5, i64 32
  store i16 %18, ptr %19, align 8
  %20 = zext i16 %18 to i32
  %21 = shl nuw nsw i32 %20, 2
  %22 = zext nneg i32 %21 to i64
  %23 = tail call ptr @slurm_xcalloc(i64 noundef 1, i64 noundef %22, i1 noundef zeroext true, i1 noundef zeroext false, ptr noundef nonnull @.str.10, i32 noundef 1639, ptr noundef nonnull @__func__._dup_cr) #11
  %24 = getelementptr inbounds nuw i8, ptr %5, i64 24
  store ptr %23, ptr %24, align 8
  %25 = getelementptr inbounds nuw i8, ptr %0, i64 24
  %26 = load ptr, ptr %25, align 8
  %27 = zext nneg i32 %21 to i64
  tail call void @llvm.memcpy.p0.p0.i64(ptr align 4 %23, ptr align 4 %26, i64 %27, i1 false)
  %28 = load i32, ptr @node_record_count, align 4
  %29 = sext i32 %28 to i64
  %30 = tail call ptr @slurm_xcalloc(i64 noundef %29, i64 noundef 32, i1 noundef zeroext true, i1 noundef zeroext false, ptr noundef nonnull @.str.10, i32 noundef 1643, ptr noundef nonnull @__func__._dup_cr) #11
  store ptr %30, ptr %5, align 8
  store i32 0, ptr %2, align 4
  %31 = call ptr @next_node(ptr noundef nonnull %2) #11
  %.not58 = icmp eq ptr %31, null
  br i1 %.not58, label %.loopexit, label %.lr.ph60

.lr.ph60:                                         ; preds = %4, %77
  %32 = phi ptr [ %85, %77 ], [ %31, %4 ]
  %33 = load ptr, ptr %0, align 8
  %34 = getelementptr inbounds nuw i8, ptr %32, i64 208
  %35 = load i32, ptr %34, align 8
  %36 = zext i32 %35 to i64
  %37 = getelementptr inbounds nuw %struct.node_cr_record, ptr %33, i64 %36, i32 1
  %38 = load i64, ptr %37, align 8
  %39 = load ptr, ptr %5, align 8
  %40 = getelementptr inbounds nuw %struct.node_cr_record, ptr %39, i64 %36, i32 1
  store i64 %38, ptr %40, align 8
  %41 = load ptr, ptr %0, align 8
  %42 = load i32, ptr %34, align 8
  %43 = zext i32 %42 to i64
  %44 = getelementptr inbounds nuw %struct.node_cr_record, ptr %41, i64 %43, i32 2
  %45 = load i16, ptr %44, align 8
  %46 = load ptr, ptr %5, align 8
  %47 = getelementptr inbounds nuw %struct.node_cr_record, ptr %46, i64 %43, i32 2
  store i16 %45, ptr %47, align 8
  %48 = load ptr, ptr %0, align 8
  %49 = load i32, ptr %34, align 8
  %50 = zext i32 %49 to i64
  %51 = getelementptr inbounds nuw %struct.node_cr_record, ptr %48, i64 %50
  %.04955 = load ptr, ptr %51, align 8
  %.not5356 = icmp eq ptr %.04955, null
  br i1 %.not5356, label %._crit_edge, label %.lr.ph

.lr.ph:                                           ; preds = %.lr.ph60, %.lr.ph
  %.04957 = phi ptr [ %.049, %.lr.ph ], [ %.04955, %.lr.ph60 ]
  %52 = call ptr @slurm_xcalloc(i64 noundef 1, i64 noundef 24, i1 noundef zeroext true, i1 noundef zeroext false, ptr noundef nonnull @.str.10, i32 noundef 1653, ptr noundef nonnull @__func__._dup_cr) #11
  %53 = load ptr, ptr %.04957, align 8
  store ptr %53, ptr %52, align 8
  %54 = getelementptr inbounds nuw i8, ptr %.04957, i64 8
  %55 = load i16, ptr %54, align 8
  %56 = getelementptr inbounds nuw i8, ptr %52, i64 8
  store i16 %55, ptr %56, align 8
  %57 = getelementptr inbounds nuw i8, ptr %.04957, i64 10
  %58 = load i16, ptr %57, align 2
  %59 = getelementptr inbounds nuw i8, ptr %52, i64 10
  store i16 %58, ptr %59, align 2
  %60 = load ptr, ptr %5, align 8
  %61 = load i32, ptr %34, align 8
  %62 = zext i32 %61 to i64
  %63 = getelementptr inbounds nuw %struct.node_cr_record, ptr %60, i64 %62
  %64 = load ptr, ptr %63, align 8
  %65 = getelementptr inbounds nuw i8, ptr %52, i64 16
  store ptr %64, ptr %65, align 8
  %66 = load ptr, ptr %5, align 8
  %67 = load i32, ptr %34, align 8
  %68 = zext i32 %67 to i64
  %69 = getelementptr inbounds nuw %struct.node_cr_record, ptr %66, i64 %68
  store ptr %52, ptr %69, align 8
  %70 = getelementptr inbounds nuw i8, ptr %.04957, i64 16
  %.049 = load ptr, ptr %70, align 8
  %.not53 = icmp eq ptr %.049, null
  br i1 %.not53, label %._crit_edge.loopexit, label %.lr.ph, !llvm.loop !53

._crit_edge.loopexit:                             ; preds = %.lr.ph
  %.pre = load ptr, ptr %0, align 8
  %.pre61 = load i32, ptr %34, align 8
  %.pre62 = zext i32 %.pre61 to i64
  br label %._crit_edge

._crit_edge:                                      ; preds = %._crit_edge.loopexit, %.lr.ph60
  %.pre-phi = phi i64 [ %.pre62, %._crit_edge.loopexit ], [ %50, %.lr.ph60 ]
  %71 = phi ptr [ %.pre, %._crit_edge.loopexit ], [ %48, %.lr.ph60 ]
  %72 = getelementptr inbounds nuw %struct.node_cr_record, ptr %71, i64 %.pre-phi, i32 3
  %73 = load ptr, ptr %72, align 8
  %.not54 = icmp eq ptr %73, null
  br i1 %.not54, label %74, label %77

74:                                               ; preds = %._crit_edge
  %75 = getelementptr inbounds nuw i8, ptr %32, i64 200
  %76 = load ptr, ptr %75, align 8
  br label %77

77:                                               ; preds = %._crit_edge, %74
  %.0 = phi ptr [ %76, %74 ], [ %73, %._crit_edge ]
  %78 = call ptr @gres_node_state_list_dup(ptr noundef %.0) #11
  %79 = load ptr, ptr %5, align 8
  %80 = load i32, ptr %34, align 8
  %81 = zext i32 %80 to i64
  %82 = getelementptr inbounds nuw %struct.node_cr_record, ptr %79, i64 %81, i32 3
  store ptr %78, ptr %82, align 8
  %83 = load i32, ptr %2, align 4
  %84 = add nsw i32 %83, 1
  store i32 %84, ptr %2, align 4
  %85 = call ptr @next_node(ptr noundef nonnull %2) #11
  %.not = icmp eq ptr %85, null
  br i1 %.not, label %.loopexit, label %.lr.ph60, !llvm.loop !54

.loopexit:                                        ; preds = %77, %4, %1
  %.048 = phi ptr [ null, %1 ], [ %5, %4 ], [ %5, %77 ]
  call void @llvm.lifetime.end.p0(i64 4, ptr nonnull %2) #11
  ret ptr %.048
}